target datalayout = "e-m:e-p270:32:32-p271:32:32-p272:64:64-i64:64-i128:128-f80:128-n8:16:32:64-S128"
target triple = "x86_64-pc-linux-gnu"

%struct._DOT11DECRYPT_SEC_ASSOCIATION_ID = type { [6 x i8], [6 x i8] }
%struct._DOT11DECRYPT_SEC_ASSOCIATION = type { ptr, %struct._DOT11DECRYPT_SEC_ASSOCIATION_ID, ptr, i8, i8, %struct.anon }
%struct.anon = type { i8, [32 x i8], i32, i32, i32, [88 x i8], i32 }

; Function Attrs: null_pointer_is_valid sspstrong uwtable
define internal void @Dot11DecryptCleanSA(ptr noundef %0) #0 {
  %2 = alloca ptr, align 8
  %3 = alloca ptr, align 8
  %4 = alloca ptr, align 8
  store ptr %0, ptr %2, align 8
  call void @llvm.lifetime.start.p0(i64 8, ptr %3) #16
  %5 = load ptr, ptr %2, align 8
  store ptr %5, ptr %3, align 8
  br label %6

6:                                                ; preds = %9, %1
  %7 = load ptr, ptr %3, align 8
  %8 = icmp ne ptr %7, null
  br i1 %8, label %9, label %15

9:                                                ; preds = %6
  call void @llvm.lifetime.start.p0(i64 8, ptr %4) #16
  %10 = load ptr, ptr %3, align 8
  %11 = getelementptr inbounds nuw %struct._DOT11DECRYPT_SEC_ASSOCIATION, ptr %10, i32 0, i32 0
  %12 = load ptr, ptr %11, align 8
  store ptr %12, ptr %4, align 8
  %13 = load ptr, ptr %3, align 8
  call void @g_free(ptr noundef %13)
  %14 = load ptr, ptr %4, align 8
  store ptr %14, ptr %3, align 8
  call void @llvm.lifetime.end.p0(i64 8, ptr %4) #16
  br label %6, !llvm.loop !16

15:                                               ; preds = %6
  call void @llvm.lifetime.end.p0(i64 8, ptr %3) #16
  ret void
}