; Function Attrs: null_pointer_is_valid sspstrong uwtable
define internal void @Dot11DecryptCleanSA(ptr noundef %0) #0 {
  %.not5 = icmp eq ptr %0, null
  br i1 %.not5, label %._crit_edge, label %.lr.ph

.lr.ph:                                           ; preds = %1, %.lr.ph
  %.06 = phi ptr [ %2, %.lr.ph ], [ %0, %1 ]
  %2 = load ptr, ptr %.06, align 8
  tail call void @g_free(ptr noundef nonnull %.06)
  %.not = icmp eq ptr %2, null
  br i1 %.not, label %._crit_edge, label %.lr.ph, !llvm.loop !44

._crit_edge:                                      ; preds = %.lr.ph, %1
  ret void
}